target datalayout = "e-m:e-p270:32:32-p271:32:32-p272:64:64-i64:64-i128:128-f80:128-n8:16:32:64-S128"
target triple = "x86_64-pc-linux-gnu"

%struct.json_parse_t = type { ptr, ptr, ptr, ptr, i32 }
%struct.json_token_t = type { i32, i64, %union.anon, i64 }
%union.anon = type { ptr }

@.str.15 = private unnamed_addr constant [20 x i8] c"expected 1 argument\00", align 1
@.str.16 = private unnamed_addr constant [41 x i8] c"BUG: Unable to fetch CJSON configuration\00", align 1
@.str.64 = private unnamed_addr constant [46 x i8] c"JSON parser does not support UTF-16 or UTF-32\00", align 1
@.str.65 = private unnamed_addr constant [8 x i8] c"the end\00", align 1
@json_token_type_name = internal global [15 x ptr] [ptr @.str.79, ptr @.str.80, ptr @.str.81, ptr @.str.82, ptr @.str.83, ptr @.str.84, ptr @.str.85, ptr @.str.86, ptr @.str.87, ptr @.str.88, ptr @.str.89, ptr @.str.90, ptr @.str.91, ptr @.str.92, ptr null], align 16
@.str.78 = private unnamed_addr constant [41 x i8] c"Expected %s but found %s at character %d\00", align 1

; Function Attrs: nounwind uwtable
define internal void @json_throw_parse_error(ptr noundef %0, ptr noundef %1, ptr noundef %2, ptr noundef %3) #0 {
  %5 = alloca ptr, align 8
  %6 = alloca ptr, align 8
  %7 = alloca ptr, align 8
  %8 = alloca ptr, align 8
  %9 = alloca ptr, align 8
  store ptr %0, ptr %5, align 8, !tbaa !4
  store ptr %1, ptr %6, align 8, !tbaa !15
  store ptr %2, ptr %7, align 8, !tbaa !11
  store ptr %3, ptr %8, align 8, !tbaa !15
  call void @llvm.lifetime.start.p0(i64 8, ptr %9) #9
  %10 = load ptr, ptr %6, align 8, !tbaa !15
  %11 = getelementptr inbounds nuw %struct.json_parse_t, ptr %10, i32 0, i32 2
  %12 = load ptr, ptr %11, align 8, !tbaa !27
  call void @strbuf_free(ptr noundef %12)
  %13 = load ptr, ptr %8, align 8, !tbaa !15
  %14 = getelementptr inbounds nuw %struct.json_token_t, ptr %13, i32 0, i32 0
  %15 = load i32, ptr %14, align 8, !tbaa !28
  %16 = icmp eq i32 %15, 12
  br i1 %16, label %17, label %21

17:                                               ; preds = %4
  %18 = load ptr, ptr %8, align 8, !tbaa !15
  %19 = getelementptr inbounds nuw %struct.json_token_t, ptr %18, i32 0, i32 2
  %20 = load ptr, ptr %19, align 8, !tbaa !26
  store ptr %20, ptr %9, align 8, !tbaa !11
  br label %28

21:                                               ; preds = %4
  %22 = load ptr, ptr %8, align 8, !tbaa !15
  %23 = getelementptr inbounds nuw %struct.json_token_t, ptr %22, i32 0, i32 0
  %24 = load i32, ptr %23, align 8, !tbaa !28
  %25 = zext i32 %24 to i64
  %26 = getelementptr inbounds nuw [15 x ptr], ptr @json_token_type_name, i64 0, i64 %25
  %27 = load ptr, ptr %26, align 8, !tbaa !11
  store ptr %27, ptr %9, align 8, !tbaa !11
  br label %28

28:                                               ; preds = %21, %17
  %29 = load ptr, ptr %5, align 8, !tbaa !4
  %30 = load ptr, ptr %7, align 8, !tbaa !11
  %31 = load ptr, ptr %9, align 8, !tbaa !11
  %32 = load ptr, ptr %8, align 8, !tbaa !15
  %33 = getelementptr inbounds nuw %struct.json_token_t, ptr %32, i32 0, i32 1
  %34 = load i64, ptr %33, align 8, !tbaa !59
  %35 = add i64 %34, 1
  %36 = call i32 (ptr, ptr, ...) @luaL_error(ptr noundef %29, ptr noundef @.str.78, ptr noundef %30, ptr noundef %31, i64 noundef %35)
  call void @llvm.lifetime.end.p0(i64 8, ptr %9) #9
  ret void
}

; Function Attrs: nounwind uwtable
define internal ptr @json_fetch_config(ptr noundef %0) #0 {
  %2 = alloca ptr, align 8
  %3 = alloca ptr, align 8
  store ptr %0, ptr %2, align 8, !tbaa !4
  call void @llvm.lifetime.start.p0(i64 8, ptr %3) #9
  %4 = load ptr, ptr %2, align 8, !tbaa !4
  %5 = call ptr @lua_touserdata(ptr noundef %4, i32 noundef -10003)
  store ptr %5, ptr %3, align 8, !tbaa !15
  %6 = load ptr, ptr %3, align 8, !tbaa !15
  %7 = icmp ne ptr %6, null
  br i1 %7, label %11, label %8

8:                                                ; preds = %1
  %9 = load ptr, ptr %2, align 8, !tbaa !4
  %10 = call i32 (ptr, ptr, ...) @luaL_error(ptr noundef %9, ptr noundef @.str.16)
  br label %11

11:                                               ; preds = %8, %1
  %12 = load ptr, ptr %3, align 8, !tbaa !15
  call void @llvm.lifetime.end.p0(i64 8, ptr %3) #9
  ret ptr %12
}

; Function Attrs: nounwind uwtable
define internal i32 @json_decode(ptr noundef %0) #0 {
  %2 = alloca ptr, align 8
  %3 = alloca %struct.json_parse_t, align 8
  %4 = alloca %struct.json_token_t, align 8
  %5 = alloca i64, align 8
  store ptr %0, ptr %2, align 8, !tbaa !4
  call void @llvm.lifetime.start.p0(i64 40, ptr %3) #9
  call void @llvm.lifetime.start.p0(i64 32, ptr %4) #9
  call void @llvm.lifetime.start.p0(i64 8, ptr %5) #9
  %6 = load ptr, ptr %2, align 8, !tbaa !4
  %7 = call i32 @lua_gettop(ptr noundef %6)
  %8 = icmp eq i32 %7, 1
  br i1 %8, label %12, label %9

9:                                                ; preds = %1
  %10 = load ptr, ptr %2, align 8, !tbaa !4
  %11 = call i32 @luaL_argerror(ptr noundef %10, i32 noundef 1, ptr noundef @.str.15)
  br label %12

12:                                               ; preds = %9, %1
  %13 = load ptr, ptr %2, align 8, !tbaa !4
  %14 = call ptr @json_fetch_config(ptr noundef %13)
  %15 = getelementptr inbounds nuw %struct.json_parse_t, ptr %3, i32 0, i32 3
  store ptr %14, ptr %15, align 8, !tbaa !21
  %16 = load ptr, ptr %2, align 8, !tbaa !4
  %17 = call ptr @luaL_checklstring(ptr noundef %16, i32 noundef 1, ptr noundef %5)
  %18 = getelementptr inbounds nuw %struct.json_parse_t, ptr %3, i32 0, i32 0
  store ptr %17, ptr %18, align 8, !tbaa !23
  %19 = getelementptr inbounds nuw %struct.json_parse_t, ptr %3, i32 0, i32 4
  store i32 0, ptr %19, align 8, !tbaa !24
  %20 = getelementptr inbounds nuw %struct.json_parse_t, ptr %3, i32 0, i32 0
  %21 = load ptr, ptr %20, align 8, !tbaa !23
  %22 = getelementptr inbounds nuw %struct.json_parse_t, ptr %3, i32 0, i32 1
  store ptr %21, ptr %22, align 8, !tbaa !25
  %23 = load i64, ptr %5, align 8, !tbaa !20
  %24 = icmp uge i64 %23, 2
  br i1 %24, label %25, label %40

25:                                               ; preds = %12
  %26 = getelementptr inbounds nuw %struct.json_parse_t, ptr %3, i32 0, i32 0
  %27 = load ptr, ptr %26, align 8, !tbaa !23
  %28 = getelementptr inbounds i8, ptr %27, i64 0
  %29 = load i8, ptr %28, align 1, !tbaa !26
  %30 = icmp ne i8 %29, 0
  br i1 %30, label %31, label %37

31:                                               ; preds = %25
  %32 = getelementptr inbounds nuw %struct.json_parse_t, ptr %3, i32 0, i32 0
  %33 = load ptr, ptr %32, align 8, !tbaa !23
  %34 = getelementptr inbounds i8, ptr %33, i64 1
  %35 = load i8, ptr %34, align 1, !tbaa !26
  %36 = icmp ne i8 %35, 0
  br i1 %36, label %40, label %37

37:                                               ; preds = %31, %25
  %38 = load ptr, ptr %2, align 8, !tbaa !4
  %39 = call i32 (ptr, ptr, ...) @luaL_error(ptr noundef %38, ptr noundef @.str.64)
  br label %40

40:                                               ; preds = %37, %31, %12
  %41 = load i64, ptr %5, align 8, !tbaa !20
  %42 = call ptr @strbuf_new(i64 noundef %41)
  %43 = getelementptr inbounds nuw %struct.json_parse_t, ptr %3, i32 0, i32 2
  store ptr %42, ptr %43, align 8, !tbaa !27
  call void @json_next_token(ptr noundef %3, ptr noundef %4)
  %44 = load ptr, ptr %2, align 8, !tbaa !4
  call void @json_process_value(ptr noundef %44, ptr noundef %3, ptr noundef %4)
  call void @json_next_token(ptr noundef %3, ptr noundef %4)
  %45 = getelementptr inbounds nuw %struct.json_token_t, ptr %4, i32 0, i32 0
  %46 = load i32, ptr %45, align 8, !tbaa !28
  %47 = icmp ne i32 %46, 10
  br i1 %47, label %48, label %50

48:                                               ; preds = %40
  %49 = load ptr, ptr %2, align 8, !tbaa !4
  call void @json_throw_parse_error(ptr noundef %49, ptr noundef %3, ptr noundef @.str.65, ptr noundef %4)
  br label %50

50:                                               ; preds = %48, %40
  %51 = getelementptr inbounds nuw %struct.json_parse_t, ptr %3, i32 0, i32 2
  %52 = load ptr, ptr %51, align 8, !tbaa !27
  call void @strbuf_free(ptr noundef %52)
  call void @llvm.lifetime.end.p0(i64 8, ptr %5) #9
  call void @llvm.lifetime.end.p0(i64 32, ptr %4) #9
  call void @llvm.lifetime.end.p0(i64 40, ptr %3) #9
  ret i32 1
}