; Function Attrs: nounwind uwtable
define internal noundef i32 @json_decode(ptr noundef %0) #0 {
  %2 = alloca %struct.json_parse_t, align 8
  %3 = alloca %struct.json_token_t, align 8
  %4 = alloca i64, align 8
  call void @llvm.lifetime.start.p0(i64 40, ptr nonnull %2) #12
  call void @llvm.lifetime.start.p0(i64 32, ptr nonnull %3) #12
  call void @llvm.lifetime.start.p0(i64 8, ptr nonnull %4) #12
  %5 = tail call i32 @lua_gettop(ptr noundef %0) #12
  %6 = icmp eq i32 %5, 1
  br i1 %6, label %9, label %7

7:                                                ; preds = %1
  %8 = tail call i32 @luaL_argerror(ptr noundef %0, i32 noundef 1, ptr noundef nonnull @.str.15) #12
  br label %9

9:                                                ; preds = %7, %1
  %10 = tail call ptr @lua_touserdata(ptr noundef %0, i32 noundef -10003) #12
  %.not.i = icmp eq ptr %10, null
  br i1 %.not.i, label %11, label %json_fetch_config.exit

11:                                               ; preds = %9
  %12 = tail call i32 (ptr, ptr, ...) @luaL_error(ptr noundef %0, ptr noundef nonnull @.str.16) #12
  br label %json_fetch_config.exit

json_fetch_config.exit:                           ; preds = %9, %11
  %13 = getelementptr inbounds nuw i8, ptr %2, i64 24
  store ptr %10, ptr %13, align 8, !tbaa !34
  %14 = call ptr @luaL_checklstring(ptr noundef %0, i32 noundef 1, ptr noundef nonnull %4) #12
  store ptr %14, ptr %2, align 8, !tbaa !36
  %15 = getelementptr inbounds nuw i8, ptr %2, i64 32
  store i32 0, ptr %15, align 8, !tbaa !37
  %16 = getelementptr inbounds nuw i8, ptr %2, i64 8
  store ptr %14, ptr %16, align 8, !tbaa !38
  %17 = load i64, ptr %4, align 8, !tbaa !39
  %18 = icmp ugt i64 %17, 1
  br i1 %18, label %19, label %26

19:                                               ; preds = %json_fetch_config.exit
  %20 = load i8, ptr %14, align 1, !tbaa !25
  %.not = icmp eq i8 %20, 0
  br i1 %.not, label %24, label %21

21:                                               ; preds = %19
  %22 = getelementptr inbounds nuw i8, ptr %14, i64 1
  %23 = load i8, ptr %22, align 1, !tbaa !25
  %.not7 = icmp eq i8 %23, 0
  br i1 %.not7, label %24, label %26

24:                                               ; preds = %21, %19
  %25 = call i32 (ptr, ptr, ...) @luaL_error(ptr noundef %0, ptr noundef nonnull @.str.64) #12
  %.pre = load i64, ptr %4, align 8, !tbaa !39
  br label %26

26:                                               ; preds = %24, %21, %json_fetch_config.exit
  %27 = phi i64 [ %.pre, %24 ], [ %17, %21 ], [ %17, %json_fetch_config.exit ]
  %28 = call ptr @strbuf_new(i64 noundef %27) #12
  %29 = getelementptr inbounds nuw i8, ptr %2, i64 16
  store ptr %28, ptr %29, align 8, !tbaa !40
  call fastcc void @json_next_token(ptr noundef %2, ptr noundef %3)
  call fastcc void @json_process_value(ptr noundef %0, ptr noundef %2, ptr noundef %3)
  call fastcc void @json_next_token(ptr noundef %2, ptr noundef %3)
  %30 = load i32, ptr %3, align 8, !tbaa !41
  %.not8 = icmp eq i32 %30, 10
  br i1 %.not8, label %40, label %31

31:                                               ; preds = %26
  %.val = load ptr, ptr %29, align 8, !tbaa !40
  call void @strbuf_free(ptr noundef %.val) #12
  %32 = icmp eq i32 %30, 12
  %33 = getelementptr inbounds nuw i8, ptr %3, i64 16
  %34 = zext i32 %30 to i64
  %35 = getelementptr inbounds nuw [15 x ptr], ptr @json_token_type_name, i64 0, i64 %34
  %.0.in.i = select i1 %32, ptr %33, ptr %35
  %.0.i = load ptr, ptr %.0.in.i, align 8, !tbaa !25
  %36 = getelementptr inbounds nuw i8, ptr %3, i64 8
  %37 = load i64, ptr %36, align 8, !tbaa !43
  %38 = add i64 %37, 1
  %39 = call i32 (ptr, ptr, ...) @luaL_error(ptr noundef %0, ptr noundef nonnull @.str.78, ptr noundef nonnull @.str.65, ptr noundef %.0.i, i64 noundef %38) #12
  br label %40

40:                                               ; preds = %31, %26
  %41 = load ptr, ptr %29, align 8, !tbaa !40
  call void @strbuf_free(ptr noundef %41) #12
  call void @llvm.lifetime.end.p0(i64 8, ptr nonnull %4) #12
  call void @llvm.lifetime.end.p0(i64 32, ptr nonnull %3) #12
  call void @llvm.lifetime.end.p0(i64 40, ptr nonnull %2) #12
  ret i32 1
}